; Function Attrs: mustprogress uwtable
define hidden void @_ZNK7pb_util9get_coeffEP9func_declj(ptr dead_on_unwind noalias writable sret(%class.rational) align 8 %0, ptr noundef nonnull readonly align 8 captures(none) dereferenceable(64) %1, ptr noundef readonly captures(none) %2, i32 noundef %3) local_unnamed_addr #3 align 2 {
  %5 = getelementptr inbounds nuw i8, ptr %2, i64 24
  %6 = load ptr, ptr %5, align 8, !tbaa !180
  %7 = icmp eq ptr %6, null
  br i1 %7, label %_ZNK7pb_util13is_at_least_kEP9func_decl.exit.thread, label %_ZNK4decl13get_family_idEv.exit.thread.i.i

_ZNK4decl13get_family_idEv.exit.thread.i.i:       ; preds = %4
  %8 = getelementptr inbounds nuw i8, ptr %1, i64 8
  %9 = load i32, ptr %8, align 8, !tbaa !153
  %10 = load i32, ptr %6, align 8, !tbaa !87
  %11 = icmp eq i32 %10, %9
  br i1 %11, label %_ZNK7pb_util12is_at_most_kEP9func_decl.exit, label %_ZNK7pb_util13is_at_least_kEP9func_decl.exit.thread

_ZNK7pb_util12is_at_most_kEP9func_decl.exit:      ; preds = %_ZNK4decl13get_family_idEv.exit.thread.i.i
  %12 = getelementptr inbounds nuw i8, ptr %6, i64 4
  %13 = load i32, ptr %12, align 4, !tbaa !183
  %14 = icmp eq i32 %13, 0
  br i1 %14, label %18, label %_ZNK7pb_util13is_at_least_kEP9func_decl.exit

_ZNK7pb_util13is_at_least_kEP9func_decl.exit:     ; preds = %_ZNK7pb_util12is_at_most_kEP9func_decl.exit
  %15 = getelementptr inbounds nuw i8, ptr %6, i64 4
  %16 = load i32, ptr %15, align 4, !tbaa !183
  %17 = icmp eq i32 %16, 1
  br i1 %17, label %18, label %_ZNK7pb_util13is_at_least_kEP9func_decl.exit.thread

18:                                               ; preds = %_ZNK7pb_util13is_at_least_kEP9func_decl.exit, %_ZNK7pb_util12is_at_most_kEP9func_decl.exit
  store i32 0, ptr %0, align 8, !tbaa !118
  %19 = getelementptr inbounds nuw i8, ptr %0, i64 4
  %20 = load i8, ptr %19, align 4
  %21 = and i8 %20, -4
  store i8 %21, ptr %19, align 4
  %22 = getelementptr inbounds nuw i8, ptr %0, i64 8
  store ptr null, ptr %22, align 8, !tbaa !121
  %23 = getelementptr inbounds nuw i8, ptr %0, i64 16
  store i32 1, ptr %23, align 8, !tbaa !118
  %24 = getelementptr inbounds nuw i8, ptr %0, i64 20
  %25 = load i8, ptr %24, align 4
  %26 = and i8 %25, -4
  store i8 %26, ptr %24, align 4
  %27 = getelementptr inbounds nuw i8, ptr %0, i64 24
  store ptr null, ptr %27, align 8, !tbaa !121
  %28 = load ptr, ptr @_ZN8rational13g_mpq_managerE, align 8, !tbaa !95
  %29 = load i8, ptr getelementptr inbounds nuw (i8, ptr @_ZN8rational5m_oneE, i64 4), align 4
  %30 = and i8 %29, 1
  %31 = icmp eq i8 %30, 0
  br i1 %31, label %32, label %34

32:                                               ; preds = %18
  %33 = load i32, ptr @_ZN8rational5m_oneE, align 8, !tbaa !118
  store i32 %33, ptr %0, align 8, !tbaa !118
  store i8 %21, ptr %19, align 4
  br label %_ZN11mpq_managerILb1EE3setER3mpzRKS1_.exit.i.i

34:                                               ; preds = %18
  tail call void @_ZN11mpz_managerILb1EE7big_setER3mpzRKS1_(ptr noundef nonnull align 8 dereferenceable(728) %28, ptr noundef nonnull align 8 dereferenceable(32) %0, ptr noundef nonnull align 8 dereferenceable(32) @_ZN8rational5m_oneE)
  br label %_ZN11mpq_managerILb1EE3setER3mpzRKS1_.exit.i.i

_ZN11mpq_managerILb1EE3setER3mpzRKS1_.exit.i.i:   ; preds = %34, %32
  %35 = load i8, ptr getelementptr inbounds nuw (i8, ptr @_ZN8rational5m_oneE, i64 20), align 4
  %36 = and i8 %35, 1
  %37 = icmp eq i8 %36, 0
  br i1 %37, label %38, label %42

38:                                               ; preds = %_ZN11mpq_managerILb1EE3setER3mpzRKS1_.exit.i.i
  %39 = load i32, ptr getelementptr inbounds nuw (i8, ptr @_ZN8rational5m_oneE, i64 16), align 8, !tbaa !118
  store i32 %39, ptr %23, align 8, !tbaa !118
  %40 = load i8, ptr %24, align 4
  %41 = and i8 %40, -2
  store i8 %41, ptr %24, align 4
  br label %_ZN8rationalC2ERKS_.exit

42:                                               ; preds = %_ZN11mpq_managerILb1EE3setER3mpzRKS1_.exit.i.i
  tail call void @_ZN11mpz_managerILb1EE7big_setER3mpzRKS1_(ptr noundef nonnull align 8 dereferenceable(728) %28, ptr noundef nonnull align 8 dereferenceable(16) %23, ptr noundef nonnull align 8 dereferenceable(16) getelementptr inbounds nuw (i8, ptr @_ZN8rational5m_oneE, i64 16))
  br label %_ZN8rationalC2ERKS_.exit

_ZNK7pb_util13is_at_least_kEP9func_decl.exit.thread: ; preds = %_ZNK4decl13get_family_idEv.exit.thread.i.i, %4, %_ZNK7pb_util13is_at_least_kEP9func_decl.exit
  %43 = add i32 %3, 1
  %44 = getelementptr inbounds nuw i8, ptr %6, i64 8
  %45 = load ptr, ptr %44, align 8, !tbaa !91
  %46 = zext i32 %43 to i64
  %47 = getelementptr inbounds nuw %class.parameter, ptr %45, i64 %46
  tail call void @_ZNK7pb_util11to_rationalERK9parameter(ptr dead_on_unwind writable sret(%class.rational) align 8 %0, ptr nonnull align 8 poison, ptr noundef nonnull align 8 dereferenceable(16) %47)
  br label %_ZN8rationalC2ERKS_.exit

_ZN8rationalC2ERKS_.exit:                         ; preds = %42, %38, %_ZNK7pb_util13is_at_least_kEP9func_decl.exit.thread
  ret void
}